target datalayout = "e-m:e-p270:32:32-p271:32:32-p272:64:64-i64:64-i128:128-f80:128-n8:16:32:64-S128"
target triple = "x86_64-pc-linux-gnu"

%struct.lwCanvas = type { i32, i32, ptr }
%struct.skyscraper = type { i32, i32, i32, i32, i32 }

; Function Attrs: nounwind uwtable
define dso_local void @generateSkyline(ptr noundef %0) #0 {
  %2 = alloca ptr, align 8
  %3 = alloca %struct.skyscraper, align 4
  %4 = alloca i32, align 4
  %5 = alloca i32, align 4
  %6 = alloca i32, align 4
  %7 = alloca i32, align 4
  store ptr %0, ptr %2, align 8, !tbaa !5
  call void @llvm.lifetime.start.p0(i64 20, ptr %3) #5
  call void @llvm.lifetime.start.p0(i64 4, ptr %4) #5
  store i32 2, ptr %4, align 4, !tbaa !16
  br label %8

8:                                                ; preds = %80, %1
  %9 = load i32, ptr %4, align 4, !tbaa !16
  %10 = icmp sge i32 %9, 1
  br i1 %10, label %12, label %11

11:                                               ; preds = %8
  store i32 2, ptr %5, align 4
  call void @llvm.lifetime.end.p0(i64 4, ptr %4) #5
  br label %83

12:                                               ; preds = %8
  %13 = load i32, ptr %4, align 4, !tbaa !16
  %14 = getelementptr inbounds nuw %struct.skyscraper, ptr %3, i32 0, i32 4
  store i32 %13, ptr %14, align 4, !tbaa !21
  call void @llvm.lifetime.start.p0(i64 4, ptr %6) #5
  store i32 -10, ptr %6, align 4, !tbaa !16
  br label %15

15:                                               ; preds = %78, %12
  %16 = load i32, ptr %6, align 4, !tbaa !16
  %17 = load ptr, ptr %2, align 8, !tbaa !5
  %18 = getelementptr inbounds nuw %struct.lwCanvas, ptr %17, i32 0, i32 0
  %19 = load i32, ptr %18, align 8, !tbaa !27
  %20 = icmp slt i32 %16, %19
  br i1 %20, label %22, label %21

21:                                               ; preds = %15
  store i32 5, ptr %5, align 4
  call void @llvm.lifetime.end.p0(i64 4, ptr %6) #5
  br label %79

22:                                               ; preds = %15
  %23 = call i32 @rand() #5
  %24 = srem i32 %23, 8
  %25 = load i32, ptr %6, align 4, !tbaa !16
  %26 = add nsw i32 %25, %24
  store i32 %26, ptr %6, align 4, !tbaa !16
  %27 = load i32, ptr %6, align 4, !tbaa !16
  %28 = getelementptr inbounds nuw %struct.skyscraper, ptr %3, i32 0, i32 0
  store i32 %27, ptr %28, align 4, !tbaa !19
  %29 = call i32 @rand() #5
  %30 = srem i32 %29, 9
  %31 = add nsw i32 10, %30
  %32 = getelementptr inbounds nuw %struct.skyscraper, ptr %3, i32 0, i32 1
  store i32 %31, ptr %32, align 4, !tbaa !20
  %33 = load i32, ptr %4, align 4, !tbaa !16
  %34 = icmp eq i32 %33, 2
  br i1 %34, label %35, label %48

35:                                               ; preds = %22
  %36 = load ptr, ptr %2, align 8, !tbaa !5
  %37 = getelementptr inbounds nuw %struct.lwCanvas, ptr %36, i32 0, i32 1
  %38 = load i32, ptr %37, align 4, !tbaa !12
  %39 = sdiv i32 %38, 2
  %40 = call i32 @rand() #5
  %41 = load ptr, ptr %2, align 8, !tbaa !5
  %42 = getelementptr inbounds nuw %struct.lwCanvas, ptr %41, i32 0, i32 1
  %43 = load i32, ptr %42, align 4, !tbaa !12
  %44 = srem i32 %40, %43
  %45 = sdiv i32 %44, 2
  %46 = add nsw i32 %39, %45
  %47 = getelementptr inbounds nuw %struct.skyscraper, ptr %3, i32 0, i32 2
  store i32 %46, ptr %47, align 4, !tbaa !17
  br label %61

48:                                               ; preds = %22
  %49 = load ptr, ptr %2, align 8, !tbaa !5
  %50 = getelementptr inbounds nuw %struct.lwCanvas, ptr %49, i32 0, i32 1
  %51 = load i32, ptr %50, align 4, !tbaa !12
  %52 = sdiv i32 %51, 2
  %53 = call i32 @rand() #5
  %54 = load ptr, ptr %2, align 8, !tbaa !5
  %55 = getelementptr inbounds nuw %struct.lwCanvas, ptr %54, i32 0, i32 1
  %56 = load i32, ptr %55, align 4, !tbaa !12
  %57 = srem i32 %53, %56
  %58 = sdiv i32 %57, 3
  %59 = add nsw i32 %52, %58
  %60 = getelementptr inbounds nuw %struct.skyscraper, ptr %3, i32 0, i32 2
  store i32 %59, ptr %60, align 4, !tbaa !17
  br label %61

61:                                               ; preds = %48, %35
  %62 = getelementptr inbounds nuw %struct.skyscraper, ptr %3, i32 0, i32 3
  store i32 0, ptr %62, align 4, !tbaa !22
  %63 = load ptr, ptr %2, align 8, !tbaa !5
  call void @generateSkyscraper(ptr noundef %63, ptr noundef %3)
  %64 = load i32, ptr %4, align 4, !tbaa !16
  %65 = icmp eq i32 %64, 2
  br i1 %65, label %66, label %72

66:                                               ; preds = %61
  %67 = getelementptr inbounds nuw %struct.skyscraper, ptr %3, i32 0, i32 1
  %68 = load i32, ptr %67, align 4, !tbaa !20
  %69 = sdiv i32 %68, 2
  %70 = load i32, ptr %6, align 4, !tbaa !16
  %71 = add nsw i32 %70, %69
  store i32 %71, ptr %6, align 4, !tbaa !16
  br label %78

72:                                               ; preds = %61
  %73 = getelementptr inbounds nuw %struct.skyscraper, ptr %3, i32 0, i32 1
  %74 = load i32, ptr %73, align 4, !tbaa !20
  %75 = add nsw i32 %74, 1
  %76 = load i32, ptr %6, align 4, !tbaa !16
  %77 = add nsw i32 %76, %75
  store i32 %77, ptr %6, align 4, !tbaa !16
  br label %78

78:                                               ; preds = %72, %66
  br label %15, !llvm.loop !28

79:                                               ; preds = %21
  br label %80

80:                                               ; preds = %79
  %81 = load i32, ptr %4, align 4, !tbaa !16
  %82 = add nsw i32 %81, -1
  store i32 %82, ptr %4, align 4, !tbaa !16
  br label %8, !llvm.loop !29

83:                                               ; preds = %11
  %84 = getelementptr inbounds nuw %struct.skyscraper, ptr %3, i32 0, i32 4
  store i32 0, ptr %84, align 4, !tbaa !21
  call void @llvm.lifetime.start.p0(i64 4, ptr %7) #5
  store i32 -10, ptr %7, align 4, !tbaa !16
  br label %85

85:                                               ; preds = %114, %83
  %86 = load i32, ptr %7, align 4, !tbaa !16
  %87 = load ptr, ptr %2, align 8, !tbaa !5
  %88 = getelementptr inbounds nuw %struct.lwCanvas, ptr %87, i32 0, i32 0
  %89 = load i32, ptr %88, align 8, !tbaa !27
  %90 = icmp slt i32 %86, %89
  br i1 %90, label %92, label %91

91:                                               ; preds = %85
  store i32 7, ptr %5, align 4
  call void @llvm.lifetime.end.p0(i64 4, ptr %7) #5
  br label %134

92:                                               ; preds = %85
  %93 = call i32 @rand() #5
  %94 = srem i32 %93, 8
  %95 = load i32, ptr %7, align 4, !tbaa !16
  %96 = add nsw i32 %95, %94
  store i32 %96, ptr %7, align 4, !tbaa !16
  %97 = load i32, ptr %7, align 4, !tbaa !16
  %98 = getelementptr inbounds nuw %struct.skyscraper, ptr %3, i32 0, i32 0
  store i32 %97, ptr %98, align 4, !tbaa !19
  %99 = call i32 @rand() #5
  %100 = srem i32 %99, 14
  %101 = add nsw i32 5, %100
  %102 = getelementptr inbounds nuw %struct.skyscraper, ptr %3, i32 0, i32 1
  store i32 %101, ptr %102, align 4, !tbaa !20
  %103 = getelementptr inbounds nuw %struct.skyscraper, ptr %3, i32 0, i32 1
  %104 = load i32, ptr %103, align 4, !tbaa !20
  %105 = srem i32 %104, 4
  %106 = icmp ne i32 %105, 0
  br i1 %106, label %107, label %114

107:                                              ; preds = %92
  %108 = getelementptr inbounds nuw %struct.skyscraper, ptr %3, i32 0, i32 1
  %109 = load i32, ptr %108, align 4, !tbaa !20
  %110 = srem i32 %109, 3
  %111 = getelementptr inbounds nuw %struct.skyscraper, ptr %3, i32 0, i32 1
  %112 = load i32, ptr %111, align 4, !tbaa !20
  %113 = add nsw i32 %112, %110
  store i32 %113, ptr %111, align 4, !tbaa !20
  br label %114

114:                                              ; preds = %107, %92
  %115 = load ptr, ptr %2, align 8, !tbaa !5
  %116 = getelementptr inbounds nuw %struct.lwCanvas, ptr %115, i32 0, i32 1
  %117 = load i32, ptr %116, align 4, !tbaa !12
  %118 = sdiv i32 %117, 3
  %119 = call i32 @rand() #5
  %120 = load ptr, ptr %2, align 8, !tbaa !5
  %121 = getelementptr inbounds nuw %struct.lwCanvas, ptr %120, i32 0, i32 1
  %122 = load i32, ptr %121, align 4, !tbaa !12
  %123 = srem i32 %119, %122
  %124 = sdiv i32 %123, 2
  %125 = add nsw i32 %118, %124
  %126 = getelementptr inbounds nuw %struct.skyscraper, ptr %3, i32 0, i32 2
  store i32 %125, ptr %126, align 4, !tbaa !17
  %127 = getelementptr inbounds nuw %struct.skyscraper, ptr %3, i32 0, i32 3
  store i32 1, ptr %127, align 4, !tbaa !22
  %128 = load ptr, ptr %2, align 8, !tbaa !5
  call void @generateSkyscraper(ptr noundef %128, ptr noundef %3)
  %129 = getelementptr inbounds nuw %struct.skyscraper, ptr %3, i32 0, i32 1
  %130 = load i32, ptr %129, align 4, !tbaa !20
  %131 = add nsw i32 %130, 5
  %132 = load i32, ptr %7, align 4, !tbaa !16
  %133 = add nsw i32 %132, %131
  store i32 %133, ptr %7, align 4, !tbaa !16
  br label %85, !llvm.loop !30

134:                                              ; preds = %91
  call void @llvm.lifetime.end.p0(i64 20, ptr %3) #5
  ret void
}