; Function Attrs: nounwind uwtable
define dso_local void @generateSkyline(ptr noundef %0) local_unnamed_addr #0 {
  %2 = alloca %struct.skyscraper, align 4
  call void @llvm.lifetime.start.p0(i64 20, ptr nonnull %2) #4
  %3 = getelementptr inbounds nuw i8, ptr %2, i64 16
  %4 = getelementptr inbounds nuw i8, ptr %2, i64 4
  %5 = getelementptr inbounds nuw i8, ptr %0, i64 4
  %6 = getelementptr inbounds nuw i8, ptr %2, i64 8
  %7 = getelementptr inbounds nuw i8, ptr %2, i64 12
  %8 = load i32, ptr %0, align 8, !tbaa !22
  %9 = icmp sgt i32 %8, -10
  br i1 %9, label %.split, label %._crit_edge33

.split29:                                         ; preds = %._crit_edge
  %10 = icmp sgt i32 %30, -10
  store i32 0, ptr %3, align 4, !tbaa !16
  br i1 %10, label %.lr.ph32, label %._crit_edge33

.split:                                           ; preds = %1, %._crit_edge
  %11 = phi i32 [ %30, %._crit_edge ], [ %8, %1 ]
  %.02427 = phi i32 [ %31, %._crit_edge ], [ 2, %1 ]
  store i32 %.02427, ptr %3, align 4, !tbaa !16
  %12 = icmp sgt i32 %11, -10
  br i1 %12, label %.lr.ph, label %._crit_edge

.lr.ph:                                           ; preds = %.split
  %13 = icmp eq i32 %.02427, 2
  br i1 %13, label %.lr.ph.split.us, label %.lr.ph.split

.lr.ph.split.us:                                  ; preds = %.lr.ph, %.lr.ph.split.us
  %.02326.us = phi i32 [ %.1.us, %.lr.ph.split.us ], [ -10, %.lr.ph ]
  %14 = tail call i32 @rand() #4
  %15 = srem i32 %14, 8
  %16 = add nsw i32 %15, %.02326.us
  store i32 %16, ptr %2, align 4, !tbaa !14
  %17 = tail call i32 @rand() #4
  %18 = srem i32 %17, 9
  %19 = add nsw i32 %18, 10
  store i32 %19, ptr %4, align 4, !tbaa !15
  %20 = load i32, ptr %5, align 4, !tbaa !5
  %21 = sdiv i32 %20, 2
  %22 = tail call i32 @rand() #4
  %23 = load i32, ptr %5, align 4, !tbaa !5
  %24 = srem i32 %22, %23
  %25 = sdiv i32 %24, 2
  %26 = add nsw i32 %25, %21
  store i32 %26, ptr %6, align 4, !tbaa !12
  store i32 0, ptr %7, align 4, !tbaa !20
  call void @generateSkyscraper(ptr noundef nonnull %0, ptr noundef nonnull %2)
  %27 = lshr i32 %19, 1
  %.1.us = add nsw i32 %27, %16
  %28 = load i32, ptr %0, align 8, !tbaa !22
  %29 = icmp slt i32 %.1.us, %28
  br i1 %29, label %.lr.ph.split.us, label %._crit_edge, !llvm.loop !23

._crit_edge:                                      ; preds = %.lr.ph.split, %.lr.ph.split.us, %.split
  %30 = phi i32 [ %11, %.split ], [ %28, %.lr.ph.split.us ], [ %47, %.lr.ph.split ]
  %31 = add nsw i32 %.02427, -1
  %32 = icmp ugt i32 %.02427, 1
  br i1 %32, label %.split, label %.split29, !llvm.loop !24

.lr.ph.split:                                     ; preds = %.lr.ph, %.lr.ph.split
  %.02326 = phi i32 [ %.1, %.lr.ph.split ], [ -10, %.lr.ph ]
  %33 = tail call i32 @rand() #4
  %34 = srem i32 %33, 8
  %35 = add nsw i32 %34, %.02326
  store i32 %35, ptr %2, align 4, !tbaa !14
  %36 = tail call i32 @rand() #4
  %37 = srem i32 %36, 9
  %38 = add nsw i32 %37, 10
  store i32 %38, ptr %4, align 4, !tbaa !15
  %39 = load i32, ptr %5, align 4, !tbaa !5
  %40 = sdiv i32 %39, 2
  %41 = tail call i32 @rand() #4
  %42 = load i32, ptr %5, align 4, !tbaa !5
  %43 = srem i32 %41, %42
  %44 = sdiv i32 %43, 3
  %45 = add nsw i32 %44, %40
  store i32 %45, ptr %6, align 4, !tbaa !12
  store i32 0, ptr %7, align 4, !tbaa !20
  call void @generateSkyscraper(ptr noundef nonnull %0, ptr noundef nonnull %2)
  %46 = add nsw i32 %37, 11
  %.1 = add nsw i32 %46, %35
  %47 = load i32, ptr %0, align 8, !tbaa !22
  %48 = icmp slt i32 %.1, %47
  br i1 %48, label %.lr.ph.split, label %._crit_edge, !llvm.loop !23

._crit_edge33:                                    ; preds = %59, %1, %.split29
  call void @llvm.lifetime.end.p0(i64 20, ptr nonnull %2) #4
  ret void

.lr.ph32:                                         ; preds = %.split29, %59
  %.030 = phi i32 [ %68, %59 ], [ -10, %.split29 ]
  %49 = tail call i32 @rand() #4
  %50 = srem i32 %49, 8
  %51 = add nsw i32 %50, %.030
  store i32 %51, ptr %2, align 4, !tbaa !14
  %52 = tail call i32 @rand() #4
  %53 = srem i32 %52, 14
  %54 = add nsw i32 %53, 5
  %55 = and i32 %54, 3
  %.not = icmp eq i32 %55, 0
  br i1 %.not, label %59, label %56

56:                                               ; preds = %.lr.ph32
  %.lhs.trunc25 = trunc nsw i32 %54 to i8
  %57 = srem i8 %.lhs.trunc25, 3
  %.sext = sext i8 %57 to i32
  %58 = add nsw i32 %54, %.sext
  br label %59

59:                                               ; preds = %56, %.lr.ph32
  %storemerge = phi i32 [ %58, %56 ], [ %54, %.lr.ph32 ]
  store i32 %storemerge, ptr %4, align 4, !tbaa !15
  %60 = load i32, ptr %5, align 4, !tbaa !5
  %61 = sdiv i32 %60, 3
  %62 = tail call i32 @rand() #4
  %63 = load i32, ptr %5, align 4, !tbaa !5
  %64 = srem i32 %62, %63
  %65 = sdiv i32 %64, 2
  %66 = add nsw i32 %65, %61
  store i32 %66, ptr %6, align 4, !tbaa !12
  store i32 1, ptr %7, align 4, !tbaa !20
  call void @generateSkyscraper(ptr noundef nonnull %0, ptr noundef nonnull %2)
  %67 = add i32 %51, 5
  %68 = add i32 %67, %storemerge
  %69 = load i32, ptr %0, align 8, !tbaa !22
  %70 = icmp slt i32 %68, %69
  br i1 %70, label %.lr.ph32, label %._crit_edge33, !llvm.loop !26
}